target datalayout = "e-m:e-p270:32:32-p271:32:32-p272:64:64-i64:64-i128:128-f80:128-n8:16:32:64-S128"
target triple = "x86_64-pc-linux-gnu"

; Function Attrs: nounwind uwtable
define internal double @compute_rms_dbl(ptr noundef %0, double noundef %1, double noundef %2, i32 noundef %3, ptr noundef %4, ptr noundef %5) #2 {
  %7 = alloca ptr, align 8
  %8 = alloca double, align 8
  %9 = alloca double, align 8
  %10 = alloca i32, align 4
  %11 = alloca ptr, align 8
  %12 = alloca ptr, align 8
  %13 = alloca double, align 8
  store ptr %0, ptr %7, align 8, !tbaa !100
  store double %1, ptr %8, align 8, !tbaa !101
  store double %2, ptr %9, align 8, !tbaa !101
  store i32 %3, ptr %10, align 4, !tbaa !35
  store ptr %4, ptr %11, align 8, !tbaa !99
  store ptr %5, ptr %12, align 8, !tbaa !99
  call void @llvm.lifetime.start.p0(i64 8, ptr %13) #7
  %14 = load double, ptr %8, align 8, !tbaa !101
  %15 = load double, ptr %8, align 8, !tbaa !101
  %16 = load ptr, ptr %7, align 8, !tbaa !100
  %17 = getelementptr inbounds double, ptr %16, i64 0
  %18 = load double, ptr %17, align 8, !tbaa !101
  %19 = call nsz double @llvm.fmuladd.f64(double %14, double %15, double %18)
  store double %19, ptr %17, align 8, !tbaa !101
  %20 = load double, ptr %9, align 8, !tbaa !101
  %21 = load double, ptr %9, align 8, !tbaa !101
  %22 = load ptr, ptr %7, align 8, !tbaa !100
  %23 = getelementptr inbounds double, ptr %22, i64 0
  %24 = load double, ptr %23, align 8, !tbaa !101
  %25 = fneg nsz double %20
  %26 = call nsz double @llvm.fmuladd.f64(double %25, double %21, double %24)
  store double %26, ptr %23, align 8, !tbaa !101
  %27 = load ptr, ptr %7, align 8, !tbaa !100
  %28 = getelementptr inbounds double, ptr %27, i64 0
  %29 = load double, ptr %28, align 8, !tbaa !101
  %30 = call nsz double @llvm.maxnum.f64(double %29, double 0.000000e+00)
  store double %30, ptr %13, align 8, !tbaa !101
  %31 = load ptr, ptr %7, align 8, !tbaa !100
  %32 = getelementptr inbounds double, ptr %31, i64 0
  store double %30, ptr %32, align 8, !tbaa !101
  %33 = load double, ptr %13, align 8, !tbaa !101
  %34 = load i32, ptr %10, align 4, !tbaa !35
  %35 = sitofp i32 %34 to double
  %36 = fdiv nsz double %33, %35
  %37 = call nsz double @llvm.sqrt.f64(double %36)
  call void @llvm.lifetime.end.p0(i64 8, ptr %13) #7
  ret double %37
}