; Function Attrs: mustprogress nofree norecurse nosync nounwind willreturn memory(argmem: readwrite) uwtable
define internal double @compute_rms_dbl(ptr noundef captures(none) %0, double noundef %1, double noundef %2, i32 noundef %3, ptr readnone captures(none) %4, ptr readnone captures(none) %5) #7 {
  %7 = load double, ptr %0, align 8, !tbaa !101
  %8 = tail call nsz double @llvm.fmuladd.f64(double %1, double %1, double %7)
  %9 = fneg nsz double %2
  %10 = tail call nsz double @llvm.fmuladd.f64(double %9, double %2, double %8)
  %11 = tail call nsz double @llvm.maxnum.f64(double %10, double 0.000000e+00)
  store double %11, ptr %0, align 8, !tbaa !101
  %12 = sitofp i32 %3 to double
  %13 = fdiv nsz double %11, %12
  %14 = tail call nsz double @llvm.sqrt.f64(double %13)
  ret double %14
}